target datalayout = "e-m:e-p270:32:32-p271:32:32-p272:64:64-i64:64-i128:128-f80:128-n8:16:32:64-S128"
target triple = "x86_64-pc-linux-gnu"

@my_get_default_func = hidden global ptr null, align 8
@my_get_string_func = hidden global ptr null, align 8
@my_get_int_func = hidden global ptr null, align 8
@my_get_bool_func = hidden global ptr null, align 8
@my_g_type_init_func = hidden global ptr null, align 8
@use_gproxyResolver = internal global i32 0, align 4
@use_gconf = internal global i32 0, align 4
@.str = private unnamed_addr constant [14 x i8] c"libgio-2.0.so\00", align 1
@.str.1 = private unnamed_addr constant [16 x i8] c"libgio-2.0.so.0\00", align 1
@.str.2 = private unnamed_addr constant [12 x i8] c"g_type_init\00", align 1
@.str.3 = private unnamed_addr constant [29 x i8] c"g_proxy_resolver_get_default\00", align 1
@g_proxy_resolver_get_default = internal global ptr null, align 8
@.str.4 = private unnamed_addr constant [24 x i8] c"g_proxy_resolver_lookup\00", align 1
@g_proxy_resolver_lookup = internal global ptr null, align 8
@.str.5 = private unnamed_addr constant [28 x i8] c"g_network_address_parse_uri\00", align 1
@g_network_address_parse_uri = internal global ptr null, align 8
@.str.6 = private unnamed_addr constant [31 x i8] c"g_network_address_get_hostname\00", align 1
@g_network_address_get_hostname = internal global ptr null, align 8
@.str.7 = private unnamed_addr constant [27 x i8] c"g_network_address_get_port\00", align 1
@g_network_address_get_port = internal global ptr null, align 8
@.str.8 = private unnamed_addr constant [11 x i8] c"g_strfreev\00", align 1
@g_strfreev = internal global ptr null, align 8
@.str.9 = private unnamed_addr constant [14 x i8] c"g_clear_error\00", align 1
@g_clear_error = internal global ptr null, align 8
@.str.10 = private unnamed_addr constant [14 x i8] c"libgconf-2.so\00", align 1
@.str.11 = private unnamed_addr constant [16 x i8] c"libgconf-2.so.4\00", align 1
@.str.12 = private unnamed_addr constant [25 x i8] c"gconf_client_get_default\00", align 1
@gconf_client = internal global ptr null, align 8
@.str.13 = private unnamed_addr constant [24 x i8] c"gconf_client_get_string\00", align 1
@.str.14 = private unnamed_addr constant [21 x i8] c"gconf_client_get_int\00", align 1
@.str.15 = private unnamed_addr constant [22 x i8] c"gconf_client_get_bool\00", align 1

; Function Attrs: nounwind uwtable
define internal i32 @initGConf() #0 {
  %1 = alloca i32, align 4
  %2 = call ptr @dlopen(ptr noundef @.str.10, i32 noundef 257) #8
  %3 = icmp ne ptr %2, null
  br i1 %3, label %7, label %4

4:                                                ; preds = %0
  %5 = call ptr @dlopen(ptr noundef @.str.11, i32 noundef 257) #8
  %6 = icmp ne ptr %5, null
  br i1 %6, label %7, label %37

7:                                                ; preds = %4, %0
  %8 = call ptr @dlsym(ptr noundef null, ptr noundef @.str.2) #8
  store ptr %8, ptr @my_g_type_init_func, align 8
  %9 = call ptr @dlsym(ptr noundef null, ptr noundef @.str.12) #8
  store ptr %9, ptr @my_get_default_func, align 8
  %10 = load ptr, ptr @my_g_type_init_func, align 8
  %11 = icmp ne ptr %10, null
  br i1 %11, label %12, label %36

12:                                               ; preds = %7
  %13 = load ptr, ptr @my_get_default_func, align 8
  %14 = icmp ne ptr %13, null
  br i1 %14, label %15, label %36

15:                                               ; preds = %12
  %16 = load ptr, ptr @my_g_type_init_func, align 8
  call void (...) %16()
  %17 = load ptr, ptr @my_get_default_func, align 8
  %18 = call ptr (...) %17()
  store ptr %18, ptr @gconf_client, align 8
  %19 = load ptr, ptr @gconf_client, align 8
  %20 = icmp ne ptr %19, null
  br i1 %20, label %21, label %35

21:                                               ; preds = %15
  %22 = call ptr @dlsym(ptr noundef null, ptr noundef @.str.13) #8
  store ptr %22, ptr @my_get_string_func, align 8
  %23 = call ptr @dlsym(ptr noundef null, ptr noundef @.str.14) #8
  store ptr %23, ptr @my_get_int_func, align 8
  %24 = call ptr @dlsym(ptr noundef null, ptr noundef @.str.15) #8
  store ptr %24, ptr @my_get_bool_func, align 8
  %25 = load ptr, ptr @my_get_int_func, align 8
  %26 = icmp ne ptr %25, null
  br i1 %26, label %27, label %34

27:                                               ; preds = %21
  %28 = load ptr, ptr @my_get_string_func, align 8
  %29 = icmp ne ptr %28, null
  br i1 %29, label %30, label %34

30:                                               ; preds = %27
  %31 = load ptr, ptr @my_get_bool_func, align 8
  %32 = icmp ne ptr %31, null
  br i1 %32, label %33, label %34

33:                                               ; preds = %30
  store i32 1, ptr %1, align 4
  br label %38

34:                                               ; preds = %30, %27, %21
  br label %35

35:                                               ; preds = %34, %15
  br label %36

36:                                               ; preds = %35, %12, %7
  br label %37

37:                                               ; preds = %36, %4
  store i32 0, ptr %1, align 4
  br label %38

38:                                               ; preds = %37, %33
  %39 = load i32, ptr %1, align 4
  ret i32 %39
}

; Function Attrs: nounwind uwtable
define internal i32 @initGProxyResolver() #0 {
  %1 = alloca i32, align 4
  %2 = alloca ptr, align 8
  %3 = call ptr @dlopen(ptr noundef @.str, i32 noundef 1) #8
  store ptr %3, ptr %2, align 8
  %4 = load ptr, ptr %2, align 8
  %5 = icmp ne ptr %4, null
  br i1 %5, label %12, label %6

6:                                                ; preds = %0
  %7 = call ptr @dlopen(ptr noundef @.str.1, i32 noundef 1) #8
  store ptr %7, ptr %2, align 8
  %8 = load ptr, ptr %2, align 8
  %9 = icmp ne ptr %8, null
  br i1 %9, label %11, label %10

10:                                               ; preds = %6
  store i32 0, ptr %1, align 4
  br label %57

11:                                               ; preds = %6
  br label %12

12:                                               ; preds = %11, %0
  %13 = load ptr, ptr %2, align 8
  %14 = call ptr @dlsym(ptr noundef %13, ptr noundef @.str.2) #8
  store ptr %14, ptr @my_g_type_init_func, align 8
  %15 = load ptr, ptr %2, align 8
  %16 = call ptr @dlsym(ptr noundef %15, ptr noundef @.str.3) #8
  store ptr %16, ptr @g_proxy_resolver_get_default, align 8
  %17 = load ptr, ptr %2, align 8
  %18 = call ptr @dlsym(ptr noundef %17, ptr noundef @.str.4) #8
  store ptr %18, ptr @g_proxy_resolver_lookup, align 8
  %19 = load ptr, ptr %2, align 8
  %20 = call ptr @dlsym(ptr noundef %19, ptr noundef @.str.5) #8
  store ptr %20, ptr @g_network_address_parse_uri, align 8
  %21 = load ptr, ptr %2, align 8
  %22 = call ptr @dlsym(ptr noundef %21, ptr noundef @.str.6) #8
  store ptr %22, ptr @g_network_address_get_hostname, align 8
  %23 = load ptr, ptr %2, align 8
  %24 = call ptr @dlsym(ptr noundef %23, ptr noundef @.str.7) #8
  store ptr %24, ptr @g_network_address_get_port, align 8
  %25 = load ptr, ptr %2, align 8
  %26 = call ptr @dlsym(ptr noundef %25, ptr noundef @.str.8) #8
  store ptr %26, ptr @g_strfreev, align 8
  %27 = load ptr, ptr %2, align 8
  %28 = call ptr @dlsym(ptr noundef %27, ptr noundef @.str.9) #8
  store ptr %28, ptr @g_clear_error, align 8
  %29 = load ptr, ptr @my_g_type_init_func, align 8
  %30 = icmp ne ptr %29, null
  br i1 %30, label %31, label %52

31:                                               ; preds = %12
  %32 = load ptr, ptr @g_proxy_resolver_get_default, align 8
  %33 = icmp ne ptr %32, null
  br i1 %33, label %34, label %52

34:                                               ; preds = %31
  %35 = load ptr, ptr @g_proxy_resolver_lookup, align 8
  %36 = icmp ne ptr %35, null
  br i1 %36, label %37, label %52

37:                                               ; preds = %34
  %38 = load ptr, ptr @g_network_address_parse_uri, align 8
  %39 = icmp ne ptr %38, null
  br i1 %39, label %40, label %52

40:                                               ; preds = %37
  %41 = load ptr, ptr @g_network_address_get_hostname, align 8
  %42 = icmp ne ptr %41, null
  br i1 %42, label %43, label %52

43:                                               ; preds = %40
  %44 = load ptr, ptr @g_network_address_get_port, align 8
  %45 = icmp ne ptr %44, null
  br i1 %45, label %46, label %52

46:                                               ; preds = %43
  %47 = load ptr, ptr @g_strfreev, align 8
  %48 = icmp ne ptr %47, null
  br i1 %48, label %49, label %52

49:                                               ; preds = %46
  %50 = load ptr, ptr @g_clear_error, align 8
  %51 = icmp ne ptr %50, null
  br i1 %51, label %55, label %52

52:                                               ; preds = %49, %46, %43, %40, %37, %34, %31, %12
  %53 = load ptr, ptr %2, align 8
  %54 = call i32 @dlclose(ptr noundef %53) #8
  store i32 0, ptr %1, align 4
  br label %57

55:                                               ; preds = %49
  %56 = load ptr, ptr @my_g_type_init_func, align 8
  call void (...) %56()
  store i32 1, ptr %1, align 4
  br label %57

57:                                               ; preds = %55, %52, %10
  %58 = load i32, ptr %1, align 4
  ret i32 %58
}

; Function Attrs: nounwind uwtable
define zeroext i8 @Java_sun_net_spi_DefaultProxySelector_init(ptr noundef %0, ptr noundef %1) #0 {
  %3 = alloca i8, align 1
  %4 = alloca ptr, align 8
  %5 = alloca ptr, align 8
  store ptr %0, ptr %4, align 8
  store ptr %1, ptr %5, align 8
  %6 = call i32 @initGProxyResolver()
  store i32 %6, ptr @use_gproxyResolver, align 4
  %7 = load i32, ptr @use_gproxyResolver, align 4
  %8 = icmp ne i32 %7, 0
  br i1 %8, label %11, label %9

9:                                                ; preds = %2
  %10 = call i32 @initGConf()
  store i32 %10, ptr @use_gconf, align 4
  br label %11

11:                                               ; preds = %9, %2
  %12 = load i32, ptr @use_gproxyResolver, align 4
  %13 = icmp ne i32 %12, 0
  br i1 %13, label %17, label %14

14:                                               ; preds = %11
  %15 = load i32, ptr @use_gconf, align 4
  %16 = icmp ne i32 %15, 0
  br i1 %16, label %17, label %23

17:                                               ; preds = %14, %11
  %18 = load ptr, ptr %4, align 8
  %19 = call i32 @initJavaClass(ptr noundef %18)
  %20 = icmp ne i32 %19, 0
  br i1 %20, label %21, label %22

21:                                               ; preds = %17
  store i8 1, ptr %3, align 1
  br label %24

22:                                               ; preds = %17
  br label %23

23:                                               ; preds = %22, %14
  store i8 0, ptr %3, align 1
  br label %24

24:                                               ; preds = %23, %21
  %25 = load i8, ptr %3, align 1
  ret i8 %25
}