; Function Attrs: nounwind uwtable
define zeroext range(i8 0, 2) i8 @Java_sun_net_spi_DefaultProxySelector_init(ptr noundef %0, ptr nocapture noundef readnone %1) local_unnamed_addr #0 {
  %3 = tail call ptr @dlopen(ptr noundef nonnull @.str, i32 noundef 1) #10
  %.not.i = icmp eq ptr %3, null
  br i1 %.not.i, label %4, label %6

4:                                                ; preds = %2
  %5 = tail call ptr @dlopen(ptr noundef nonnull @.str.1, i32 noundef 1) #10
  %.not28.i = icmp eq ptr %5, null
  br i1 %.not28.i, label %35, label %6

6:                                                ; preds = %4, %2
  %.0.i = phi ptr [ %3, %2 ], [ %5, %4 ]
  %7 = tail call ptr @dlsym(ptr noundef nonnull %.0.i, ptr noundef nonnull @.str.2) #10
  store ptr %7, ptr @my_g_type_init_func, align 8
  %8 = tail call ptr @dlsym(ptr noundef nonnull %.0.i, ptr noundef nonnull @.str.3) #10
  store ptr %8, ptr @g_proxy_resolver_get_default, align 8
  %9 = tail call ptr @dlsym(ptr noundef nonnull %.0.i, ptr noundef nonnull @.str.4) #10
  store ptr %9, ptr @g_proxy_resolver_lookup, align 8
  %10 = tail call ptr @dlsym(ptr noundef nonnull %.0.i, ptr noundef nonnull @.str.5) #10
  store ptr %10, ptr @g_network_address_parse_uri, align 8
  %11 = tail call ptr @dlsym(ptr noundef nonnull %.0.i, ptr noundef nonnull @.str.6) #10
  store ptr %11, ptr @g_network_address_get_hostname, align 8
  %12 = tail call ptr @dlsym(ptr noundef nonnull %.0.i, ptr noundef nonnull @.str.7) #10
  store ptr %12, ptr @g_network_address_get_port, align 8
  %13 = tail call ptr @dlsym(ptr noundef nonnull %.0.i, ptr noundef nonnull @.str.8) #10
  store ptr %13, ptr @g_strfreev, align 8
  %14 = tail call ptr @dlsym(ptr noundef nonnull %.0.i, ptr noundef nonnull @.str.9) #10
  store ptr %14, ptr @g_clear_error, align 8
  %15 = load ptr, ptr @my_g_type_init_func, align 8
  %16 = load ptr, ptr @g_proxy_resolver_get_default, align 8
  %17 = load ptr, ptr @g_proxy_resolver_lookup, align 8
  %18 = load ptr, ptr @g_network_address_parse_uri, align 8
  %19 = load ptr, ptr @g_network_address_get_hostname, align 8
  %20 = load ptr, ptr @g_network_address_get_port, align 8
  %21 = load ptr, ptr @g_strfreev, align 8
  %22 = insertelement <8 x ptr> poison, ptr %15, i64 0
  %23 = insertelement <8 x ptr> %22, ptr %16, i64 1
  %24 = insertelement <8 x ptr> %23, ptr %17, i64 2
  %25 = insertelement <8 x ptr> %24, ptr %18, i64 3
  %26 = insertelement <8 x ptr> %25, ptr %19, i64 4
  %27 = insertelement <8 x ptr> %26, ptr %20, i64 5
  %28 = insertelement <8 x ptr> %27, ptr %21, i64 6
  %29 = insertelement <8 x ptr> %28, ptr %14, i64 7
  %.fr = freeze <8 x ptr> %29
  %30 = icmp eq <8 x ptr> %.fr, zeroinitializer
  %31 = bitcast <8 x i1> %30 to i8
  %32 = icmp eq i8 %31, 0
  br i1 %32, label %.thread, label %33

33:                                               ; preds = %6
  %34 = tail call i32 @dlclose(ptr noundef nonnull %.0.i) #10
  br label %35

.thread:                                          ; preds = %6
  tail call void (...) %15() #10
  br label %.sink.split

35:                                               ; preds = %33, %4
  store i32 0, ptr @use_gproxyResolver, align 4
  %36 = tail call ptr @dlopen(ptr noundef nonnull @.str.10, i32 noundef 257) #10
  %.not.i3 = icmp eq ptr %36, null
  br i1 %.not.i3, label %37, label %39

37:                                               ; preds = %35
  %38 = tail call ptr @dlopen(ptr noundef nonnull @.str.11, i32 noundef 257) #10
  %.not7.i = icmp eq ptr %38, null
  br i1 %.not7.i, label %57, label %39

39:                                               ; preds = %37, %35
  %40 = tail call ptr @dlsym(ptr noundef null, ptr noundef nonnull @.str.2) #10
  store ptr %40, ptr @my_g_type_init_func, align 8
  %41 = tail call ptr @dlsym(ptr noundef null, ptr noundef nonnull @.str.12) #10
  store ptr %41, ptr @my_get_default_func, align 8
  %42 = load ptr, ptr @my_g_type_init_func, align 8
  %43 = icmp ne ptr %42, null
  %44 = icmp ne ptr %41, null
  %or.cond.i4 = select i1 %43, i1 %44, i1 false
  br i1 %or.cond.i4, label %45, label %57

45:                                               ; preds = %39
  tail call void (...) %42() #10
  %46 = load ptr, ptr @my_get_default_func, align 8
  %47 = tail call ptr (...) %46() #10
  store ptr %47, ptr @gconf_client, align 8
  %.not8.i = icmp eq ptr %47, null
  br i1 %.not8.i, label %57, label %48

48:                                               ; preds = %45
  %49 = tail call ptr @dlsym(ptr noundef null, ptr noundef nonnull @.str.13) #10
  store ptr %49, ptr @my_get_string_func, align 8
  %50 = tail call ptr @dlsym(ptr noundef null, ptr noundef nonnull @.str.14) #10
  store ptr %50, ptr @my_get_int_func, align 8
  %51 = tail call ptr @dlsym(ptr noundef null, ptr noundef nonnull @.str.15) #10
  store ptr %51, ptr @my_get_bool_func, align 8
  %52 = load ptr, ptr @my_get_int_func, align 8
  %53 = icmp ne ptr %52, null
  %54 = load ptr, ptr @my_get_string_func, align 8
  %55 = icmp ne ptr %54, null
  %or.cond3.i6 = select i1 %53, i1 %55, i1 false
  %56 = icmp ne ptr %51, null
  %or.cond5.i7 = select i1 %or.cond3.i6, i1 %56, i1 false
  br i1 %or.cond5.i7, label %.sink.split, label %57

57:                                               ; preds = %37, %39, %45, %48
  store i32 0, ptr @use_gconf, align 4
  %.pre = load i32, ptr @use_gproxyResolver, align 4
  %.not = icmp eq i32 %.pre, 0
  br i1 %.not, label %60, label %58

.sink.split:                                      ; preds = %48, %.thread
  %use_gconf.sink = phi ptr [ @use_gproxyResolver, %.thread ], [ @use_gconf, %48 ]
  store i32 1, ptr %use_gconf.sink, align 4
  br label %58

58:                                               ; preds = %.sink.split, %57
  %59 = tail call i32 @initJavaClass(ptr noundef %0) #10
  %.not2 = icmp eq i32 %59, 0
  br i1 %.not2, label %60, label %61

60:                                               ; preds = %58, %57
  br label %61

61:                                               ; preds = %58, %60
  %.0 = phi i8 [ 0, %60 ], [ 1, %58 ]
  ret i8 %.0
}